target datalayout = "e-m:e-p270:32:32-p271:32:32-p272:64:64-i64:64-i128:128-f80:128-n8:16:32:64-S128"
target triple = "x86_64-pc-linux-gnu"

%struct.ggml_backend = type { ptr, %struct.ggml_backend_i, ptr, ptr }
%struct.ggml_backend_i = type { ptr, ptr, ptr, ptr, ptr, ptr, ptr, ptr, ptr, ptr, ptr, ptr, ptr }
%struct.ggml_hash_set = type { i64, ptr, ptr }
%struct.ggml_backend_sched = type { i8, i8, i32, [16 x ptr], [16 x ptr], ptr, %struct.ggml_hash_set, ptr, ptr, ptr, ptr, ptr, ptr, %struct.ggml_cgraph, ptr, i32, i32, i32, i32, [16 x [4 x ptr]], [10 x ptr], i32, ptr, ptr, ptr, ptr, i64, i32 }
%struct.ggml_cgraph = type { i32, i32, i32, ptr, ptr, ptr, ptr, %struct.ggml_hash_set, i32 }

; Function Attrs: mustprogress uwtable
define void @ggml_backend_synchronize(ptr noundef %0) #0 {
  %2 = alloca ptr, align 8
  store ptr %0, ptr %2, align 8, !tbaa !56
  %3 = load ptr, ptr %2, align 8, !tbaa !56
  %4 = getelementptr inbounds nuw %struct.ggml_backend, ptr %3, i32 0, i32 1
  %5 = getelementptr inbounds nuw %struct.ggml_backend_i, ptr %4, i32 0, i32 5
  %6 = load ptr, ptr %5, align 8, !tbaa !76
  %7 = icmp eq ptr %6, null
  br i1 %7, label %8, label %9

8:                                                ; preds = %1
  br label %15

9:                                                ; preds = %1
  %10 = load ptr, ptr %2, align 8, !tbaa !56
  %11 = getelementptr inbounds nuw %struct.ggml_backend, ptr %10, i32 0, i32 1
  %12 = getelementptr inbounds nuw %struct.ggml_backend_i, ptr %11, i32 0, i32 5
  %13 = load ptr, ptr %12, align 8, !tbaa !76
  %14 = load ptr, ptr %2, align 8, !tbaa !56
  call void %13(ptr noundef %14)
  br label %15

15:                                               ; preds = %9, %8
  ret void
}

; Function Attrs: mustprogress uwtable
define void @ggml_backend_sched_synchronize(ptr noundef %0) #0 {
  %2 = alloca ptr, align 8
  %3 = alloca i32, align 4
  store ptr %0, ptr %2, align 8, !tbaa !131
  call void @llvm.lifetime.start.p0(i64 4, ptr %3) #15
  store i32 0, ptr %3, align 4, !tbaa !89
  br label %4

4:                                                ; preds = %18, %1
  %5 = load i32, ptr %3, align 4, !tbaa !89
  %6 = load ptr, ptr %2, align 8, !tbaa !131
  %7 = getelementptr inbounds nuw %struct.ggml_backend_sched, ptr %6, i32 0, i32 2
  %8 = load i32, ptr %7, align 4, !tbaa !143
  %9 = icmp slt i32 %5, %8
  br i1 %9, label %11, label %10

10:                                               ; preds = %4
  call void @llvm.lifetime.end.p0(i64 4, ptr %3) #15
  br label %21

11:                                               ; preds = %4
  %12 = load ptr, ptr %2, align 8, !tbaa !131
  %13 = getelementptr inbounds nuw %struct.ggml_backend_sched, ptr %12, i32 0, i32 3
  %14 = load i32, ptr %3, align 4, !tbaa !89
  %15 = sext i32 %14 to i64
  %16 = getelementptr inbounds [16 x ptr], ptr %13, i64 0, i64 %15
  %17 = load ptr, ptr %16, align 8, !tbaa !56
  call void @ggml_backend_synchronize(ptr noundef %17)
  br label %18

18:                                               ; preds = %11
  %19 = load i32, ptr %3, align 4, !tbaa !89
  %20 = add nsw i32 %19, 1
  store i32 %20, ptr %3, align 4, !tbaa !89
  br label %4, !llvm.loop !224

21:                                               ; preds = %10
  ret void
}

; Function Attrs: mustprogress uwtable
define i32 @ggml_backend_sched_graph_compute(ptr noundef %0, ptr noundef %1) #0 {
  %3 = alloca ptr, align 8
  %4 = alloca ptr, align 8
  %5 = alloca i32, align 4
  store ptr %0, ptr %3, align 8, !tbaa !131
  store ptr %1, ptr %4, align 8, !tbaa !77
  call void @llvm.lifetime.start.p0(i64 4, ptr %5) #15
  %6 = load ptr, ptr %3, align 8, !tbaa !131
  %7 = load ptr, ptr %4, align 8, !tbaa !77
  %8 = call i32 @ggml_backend_sched_graph_compute_async(ptr noundef %6, ptr noundef %7)
  store i32 %8, ptr %5, align 4, !tbaa !82
  %9 = load ptr, ptr %3, align 8, !tbaa !131
  call void @ggml_backend_sched_synchronize(ptr noundef %9)
  %10 = load i32, ptr %5, align 4, !tbaa !82
  call void @llvm.lifetime.end.p0(i64 4, ptr %5) #15
  ret i32 %10
}