; Function Attrs: mustprogress uwtable
define noundef i32 @ggml_backend_sched_graph_compute(ptr noundef %0, ptr noundef %1) local_unnamed_addr #0 {
  %3 = tail call i32 @ggml_backend_sched_graph_compute_async(ptr noundef %0, ptr noundef %1)
  %4 = getelementptr inbounds nuw i8, ptr %0, i64 4
  %5 = load i32, ptr %4, align 4, !tbaa !115
  %6 = icmp sgt i32 %5, 0
  br i1 %6, label %.lr.ph.i, label %ggml_backend_sched_synchronize.exit

.lr.ph.i:                                         ; preds = %2
  %7 = getelementptr inbounds nuw i8, ptr %0, i64 8
  br label %8

8:                                                ; preds = %ggml_backend_synchronize.exit.i, %.lr.ph.i
  %9 = phi i32 [ %5, %.lr.ph.i ], [ %16, %ggml_backend_synchronize.exit.i ]
  %indvars.iv.i = phi i64 [ 0, %.lr.ph.i ], [ %indvars.iv.next.i, %ggml_backend_synchronize.exit.i ]
  %10 = getelementptr inbounds nuw [16 x ptr], ptr %7, i64 0, i64 %indvars.iv.i
  %11 = load ptr, ptr %10, align 8, !tbaa !102
  %12 = getelementptr inbounds nuw i8, ptr %11, i64 48
  %13 = load ptr, ptr %12, align 8, !tbaa !66
  %14 = icmp eq ptr %13, null
  br i1 %14, label %ggml_backend_synchronize.exit.i, label %15

15:                                               ; preds = %8
  tail call void %13(ptr noundef nonnull %11)
  %.pre.i = load i32, ptr %4, align 4, !tbaa !115
  br label %ggml_backend_synchronize.exit.i

ggml_backend_synchronize.exit.i:                  ; preds = %15, %8
  %16 = phi i32 [ %9, %8 ], [ %.pre.i, %15 ]
  %indvars.iv.next.i = add nuw nsw i64 %indvars.iv.i, 1
  %17 = sext i32 %16 to i64
  %18 = icmp slt i64 %indvars.iv.next.i, %17
  br i1 %18, label %8, label %ggml_backend_sched_synchronize.exit, !llvm.loop !149

ggml_backend_sched_synchronize.exit:              ; preds = %ggml_backend_synchronize.exit.i, %2
  ret i32 %3
}